; Function Attrs: mustprogress uwtable
define hidden noundef nonnull align 8 dereferenceable(8) ptr @_ZN3sat3cut13display_tableERSojm(ptr noundef nonnull returned align 8 dereferenceable(8) %0, i32 noundef %1, i64 noundef %2) local_unnamed_addr #3 align 2 {
  br label %5

4:                                                ; preds = %5
  ret ptr %0

5:                                                ; preds = %3, %5
  %.07 = phi i32 [ 0, %3 ], [ %10, %5 ]
  %6 = zext nneg i32 %.07 to i64
  %7 = shl nuw i64 1, %6
  %8 = and i64 %7, %2
  %.not = icmp eq i64 %8, 0
  %.str.8..str.7 = select i1 %.not, ptr @.str.8, ptr @.str.7
  %9 = tail call noundef nonnull align 8 dereferenceable(8) ptr @_ZSt16__ostream_insertIcSt11char_traitsIcEERSt13basic_ostreamIT_T0_ES6_PKS3_l(ptr noundef nonnull align 8 dereferenceable(8) %0, ptr noundef nonnull %.str.8..str.7, i64 noundef 1)
  %10 = add i32 %.07, 1
  %.0.highbits = lshr i32 %10, %1
  %11 = icmp eq i32 %.0.highbits, 0
  br i1 %11, label %5, label %4, !llvm.loop !50
}